; ModuleID = '39/611.c'
source_filename = "39/611.c"
target datalayout = "e-m:e-p270:32:32-p271:32:32-p272:64:64-i64:64-f80:128-n8:16:32:64-S128"
target triple = "x86_64-pc-linux-gnu"

%struct.stu = type { [25 x i8], i32, i32, [1 x i8], [1 x i8], i32 }

@.str = private unnamed_addr constant [3 x i8] c"%d\00", align 1
@.str.1 = private unnamed_addr constant [13 x i8] c"%s%d%d%s%s%d\00", align 1
@a = common dso_local global [150 x %struct.stu] zeroinitializer, align 16
@.str.2 = private unnamed_addr constant [10 x i8] c"%s\0A%d\0A%d\0A\00", align 1

; Function Attrs: noinline nounwind uwtable
define dso_local void @main() #0 {
  %1 = alloca i32, align 4
  %2 = alloca [150 x i32], align 16
  %3 = alloca i32, align 4
  %4 = alloca i32, align 4
  %5 = alloca i32, align 4
  %6 = alloca [25 x i8], align 16
  %7 = bitcast [150 x i32]* %2 to i8*
  call void @llvm.memset.p0i8.i64(i8* align 16 %7, i8 0, i64 600, i1 false)
  store i32 0, i32* %4, align 4
  store i32 0, i32* %5, align 4
  %8 = call i32 (i8*, ...) @__isoc99_scanf(i8* getelementptr inbounds ([3 x i8], [3 x i8]* @.str, i64 0, i64 0), i32* %1)
  store i32 0, i32* %3, align 4
  br label %9

9:                                                ; preds = %42, %0
  %10 = load i32, i32* %3, align 4
  %11 = load i32, i32* %1, align 4
  %12 = icmp slt i32 %10, %11
  br i1 %12, label %13, label %45

13:                                               ; preds = %9
  %14 = load i32, i32* %3, align 4
  %15 = sext i32 %14 to i64
  %16 = getelementptr inbounds [150 x %struct.stu], [150 x %struct.stu]* @a, i64 0, i64 %15
  %17 = getelementptr inbounds %struct.stu, %struct.stu* %16, i32 0, i32 0
  %18 = getelementptr inbounds [25 x i8], [25 x i8]* %17, i64 0, i64 0
  %19 = load i32, i32* %3, align 4
  %20 = sext i32 %19 to i64
  %21 = getelementptr inbounds [150 x %struct.stu], [150 x %struct.stu]* @a, i64 0, i64 %20
  %22 = getelementptr inbounds %struct.stu, %struct.stu* %21, i32 0, i32 1
  %23 = load i32, i32* %3, align 4
  %24 = sext i32 %23 to i64
  %25 = getelementptr inbounds [150 x %struct.stu], [150 x %struct.stu]* @a, i64 0, i64 %24
  %26 = getelementptr inbounds %struct.stu, %struct.stu* %25, i32 0, i32 2
  %27 = load i32, i32* %3, align 4
  %28 = sext i32 %27 to i64
  %29 = getelementptr inbounds [150 x %struct.stu], [150 x %struct.stu]* @a, i64 0, i64 %28
  %30 = getelementptr inbounds %struct.stu, %struct.stu* %29, i32 0, i32 3
  %31 = getelementptr inbounds [1 x i8], [1 x i8]* %30, i64 0, i64 0
  %32 = load i32, i32* %3, align 4
  %33 = sext i32 %32 to i64
  %34 = getelementptr inbounds [150 x %struct.stu], [150 x %struct.stu]* @a, i64 0, i64 %33
  %35 = getelementptr inbounds %struct.stu, %struct.stu* %34, i32 0, i32 4
  %36 = getelementptr inbounds [1 x i8], [1 x i8]* %35, i64 0, i64 0
  %37 = load i32, i32* %3, align 4
  %38 = sext i32 %37 to i64
  %39 = getelementptr inbounds [150 x %struct.stu], [150 x %struct.stu]* @a, i64 0, i64 %38
  %40 = getelementptr inbounds %struct.stu, %struct.stu* %39, i32 0, i32 5
  %41 = call i32 (i8*, ...) @__isoc99_scanf(i8* getelementptr inbounds ([13 x i8], [13 x i8]* @.str.1, i64 0, i64 0), i8* %18, i32* %22, i32* %26, i8* %31, i8* %36, i32* %40)
  br label %42

42:                                               ; preds = %13
  %43 = load i32, i32* %3, align 4
  %44 = add nsw i32 %43, 1
  store i32 %44, i32* %3, align 4
  br label %9

45:                                               ; preds = %9
  store i32 0, i32* %3, align 4
  br label %46

46:                                               ; preds = %148, %45
  %47 = load i32, i32* %3, align 4
  %48 = load i32, i32* %1, align 4
  %49 = icmp slt i32 %47, %48
  br i1 %49, label %50, label %151

50:                                               ; preds = %46
  %51 = load i32, i32* %3, align 4
  %52 = sext i32 %51 to i64
  %53 = getelementptr inbounds [150 x %struct.stu], [150 x %struct.stu]* @a, i64 0, i64 %52
  %54 = getelementptr inbounds %struct.stu, %struct.stu* %53, i32 0, i32 1
  %55 = load i32, i32* %54, align 4
  %56 = icmp sgt i32 %55, 80
  br i1 %56, label %57, label %70

57:                                               ; preds = %50
  %58 = load i32, i32* %3, align 4
  %59 = sext i32 %58 to i64
  %60 = getelementptr inbounds [150 x %struct.stu], [150 x %struct.stu]* @a, i64 0, i64 %59
  %61 = getelementptr inbounds %struct.stu, %struct.stu* %60, i32 0, i32 5
  %62 = load i32, i32* %61, align 4
  %63 = icmp sge i32 %62, 1
  br i1 %63, label %64, label %70

64:                                               ; preds = %57
  %65 = load i32, i32* %3, align 4
  %66 = sext i32 %65 to i64
  %67 = getelementptr inbounds [150 x i32], [150 x i32]* %2, i64 0, i64 %66
  %68 = load i32, i32* %67, align 4
  %69 = add nsw i32 %68, 8000
  store i32 %69, i32* %67, align 4
  br label %70

70:                                               ; preds = %64, %57, %50
  %71 = load i32, i32* %3, align 4
  %72 = sext i32 %71 to i64
  %73 = getelementptr inbounds [150 x %struct.stu], [150 x %struct.stu]* @a, i64 0, i64 %72
  %74 = getelementptr inbounds %struct.stu, %struct.stu* %73, i32 0, i32 1
  %75 = load i32, i32* %74, align 4
  %76 = icmp sgt i32 %75, 85
  br i1 %76, label %77, label %90

77:                                               ; preds = %70
  %78 = load i32, i32* %3, align 4
  %79 = sext i32 %78 to i64
  %80 = getelementptr inbounds [150 x %struct.stu], [150 x %struct.stu]* @a, i64 0, i64 %79
  %81 = getelementptr inbounds %struct.stu, %struct.stu* %80, i32 0, i32 2
  %82 = load i32, i32* %81, align 4
  %83 = icmp sgt i32 %82, 80
  br i1 %83, label %84, label %90

84:                                               ; preds = %77
  %85 = load i32, i32* %3, align 4
  %86 = sext i32 %85 to i64
  %87 = getelementptr inbounds [150 x i32], [150 x i32]* %2, i64 0, i64 %86
  %88 = load i32, i32* %87, align 4
  %89 = add nsw i32 %88, 4000
  store i32 %89, i32* %87, align 4
  br label %90

90:                                               ; preds = %84, %77, %70
  %91 = load i32, i32* %3, align 4
  %92 = sext i32 %91 to i64
  %93 = getelementptr inbounds [150 x %struct.stu], [150 x %struct.stu]* @a, i64 0, i64 %92
  %94 = getelementptr inbounds %struct.stu, %struct.stu* %93, i32 0, i32 1
  %95 = load i32, i32* %94, align 4
  %96 = icmp sgt i32 %95, 90
  br i1 %96, label %97, label %103

97:                                               ; preds = %90
  %98 = load i32, i32* %3, align 4
  %99 = sext i32 %98 to i64
  %100 = getelementptr inbounds [150 x i32], [150 x i32]* %2, i64 0, i64 %99
  %101 = load i32, i32* %100, align 4
  %102 = add nsw i32 %101, 2000
  store i32 %102, i32* %100, align 4
  br label %103

103:                                              ; preds = %97, %90
  %104 = load i32, i32* %3, align 4
  %105 = sext i32 %104 to i64
  %106 = getelementptr inbounds [150 x %struct.stu], [150 x %struct.stu]* @a, i64 0, i64 %105
  %107 = getelementptr inbounds %struct.stu, %struct.stu* %106, i32 0, i32 1
  %108 = load i32, i32* %107, align 4
  %109 = icmp sgt i32 %108, 85
  br i1 %109, label %110, label %125

110:                                              ; preds = %103
  %111 = load i32, i32* %3, align 4
  %112 = sext i32 %111 to i64
  %113 = getelementptr inbounds [150 x %struct.stu], [150 x %struct.stu]* @a, i64 0, i64 %112
  %114 = getelementptr inbounds %struct.stu, %struct.stu* %113, i32 0, i32 4
  %115 = getelementptr inbounds [1 x i8], [1 x i8]* %114, i64 0, i64 0
  %116 = load i8, i8* %115, align 1
  %117 = sext i8 %116 to i32
  %118 = icmp eq i32 %117, 89
  br i1 %118, label %119, label %125

119:                                              ; preds = %110
  %120 = load i32, i32* %3, align 4
  %121 = sext i32 %120 to i64
  %122 = getelementptr inbounds [150 x i32], [150 x i32]* %2, i64 0, i64 %121
  %123 = load i32, i32* %122, align 4
  %124 = add nsw i32 %123, 1000
  store i32 %124, i32* %122, align 4
  br label %125

125:                                              ; preds = %119, %110, %103
  %126 = load i32, i32* %3, align 4
  %127 = sext i32 %126 to i64
  %128 = getelementptr inbounds [150 x %struct.stu], [150 x %struct.stu]* @a, i64 0, i64 %127
  %129 = getelementptr inbounds %struct.stu, %struct.stu* %128, i32 0, i32 2
  %130 = load i32, i32* %129, align 4
  %131 = icmp sgt i32 %130, 80
  br i1 %131, label %132, label %147

132:                                              ; preds = %125
  %133 = load i32, i32* %3, align 4
  %134 = sext i32 %133 to i64
  %135 = getelementptr inbounds [150 x %struct.stu], [150 x %struct.stu]* @a, i64 0, i64 %134
  %136 = getelementptr inbounds %struct.stu, %struct.stu* %135, i32 0, i32 3
  %137 = getelementptr inbounds [1 x i8], [1 x i8]* %136, i64 0, i64 0
  %138 = load i8, i8* %137, align 4
  %139 = sext i8 %138 to i32
  %140 = icmp eq i32 %139, 89
  br i1 %140, label %141, label %147

141:                                              ; preds = %132
  %142 = load i32, i32* %3, align 4
  %143 = sext i32 %142 to i64
  %144 = getelementptr inbounds [150 x i32], [150 x i32]* %2, i64 0, i64 %143
  %145 = load i32, i32* %144, align 4
  %146 = add nsw i32 %145, 850
  store i32 %146, i32* %144, align 4
  br label %147

147:                                              ; preds = %141, %132, %125
  br label %148

148:                                              ; preds = %147
  %149 = load i32, i32* %3, align 4
  %150 = add nsw i32 %149, 1
  store i32 %150, i32* %3, align 4
  br label %46

151:                                              ; preds = %46
  store i32 0, i32* %3, align 4
  br label %152

152:                                              ; preds = %182, %151
  %153 = load i32, i32* %3, align 4
  %154 = load i32, i32* %1, align 4
  %155 = icmp slt i32 %153, %154
  br i1 %155, label %156, label %185

156:                                              ; preds = %152
  %157 = load i32, i32* %5, align 4
  %158 = load i32, i32* %3, align 4
  %159 = sext i32 %158 to i64
  %160 = getelementptr inbounds [150 x i32], [150 x i32]* %2, i64 0, i64 %159
  %161 = load i32, i32* %160, align 4
  %162 = icmp slt i32 %157, %161
  br i1 %162, label %163, label %175

163:                                              ; preds = %156
  %164 = load i32, i32* %3, align 4
  %165 = sext i32 %164 to i64
  %166 = getelementptr inbounds [150 x i32], [150 x i32]* %2, i64 0, i64 %165
  %167 = load i32, i32* %166, align 4
  store i32 %167, i32* %5, align 4
  %168 = getelementptr inbounds [25 x i8], [25 x i8]* %6, i64 0, i64 0
  %169 = load i32, i32* %3, align 4
  %170 = sext i32 %169 to i64
  %171 = getelementptr inbounds [150 x %struct.stu], [150 x %struct.stu]* @a, i64 0, i64 %170
  %172 = getelementptr inbounds %struct.stu, %struct.stu* %171, i32 0, i32 0
  %173 = getelementptr inbounds [25 x i8], [25 x i8]* %172, i64 0, i64 0
  %174 = call i8* @strcpy(i8* %168, i8* %173) #4
  br label %175

175:                                              ; preds = %163, %156
  %176 = load i32, i32* %3, align 4
  %177 = sext i32 %176 to i64
  %178 = getelementptr inbounds [150 x i32], [150 x i32]* %2, i64 0, i64 %177
  %179 = load i32, i32* %178, align 4
  %180 = load i32, i32* %4, align 4
  %181 = add nsw i32 %180, %179
  store i32 %181, i32* %4, align 4
  br label %182

182:                                              ; preds = %175
  %183 = load i32, i32* %3, align 4
  %184 = add nsw i32 %183, 1
  store i32 %184, i32* %3, align 4
  br label %152

185:                                              ; preds = %152
  %186 = getelementptr inbounds [25 x i8], [25 x i8]* %6, i64 0, i64 0
  %187 = load i32, i32* %5, align 4
  %188 = load i32, i32* %4, align 4
  %189 = call i32 (i8*, ...) @printf(i8* getelementptr inbounds ([10 x i8], [10 x i8]* @.str.2, i64 0, i64 0), i8* %186, i32 %187, i32 %188)
  ret void
}

; Function Attrs: argmemonly nounwind willreturn
declare void @llvm.memset.p0i8.i64(i8* nocapture writeonly, i8, i64, i1 immarg) #1

declare dso_local i32 @__isoc99_scanf(i8*, ...) #2

; Function Attrs: nounwind
declare dso_local i8* @strcpy(i8*, i8*) #3

declare dso_local i32 @printf(i8*, ...) #2


!llvm.module.flags = !{!0}
!llvm.ident = !{!1}

!0 = !{i32 1, !"wchar_size", i32 4}
!1 = !{!"clang version 10.0.0-4ubuntu1 "}
